target datalayout = "e-m:e-p270:32:32-p271:32:32-p272:64:64-i64:64-i128:128-f80:128-n8:16:32:64-S128"
target triple = "x86_64-pc-linux-gnu"

%class.macro_substitution = type <{ ptr, %class.obj_map, %class.scoped_ptr, %class.scoped_ptr.0, i8, [7 x i8] }>
%class.obj_map = type { %class.core_hashtable }
%class.core_hashtable = type <{ ptr, i32, i32, i32, [4 x i8] }>
%class.scoped_ptr = type { ptr }
%class.scoped_ptr.0 = type { ptr }
%struct.obj_hash = type { i8 }
%struct.default_eq = type { i8 }
%"struct.obj_map<func_decl, quantifier *>::key_data" = type { ptr, ptr }
%"class.obj_map<func_decl, quantifier *>::obj_map_entry" = type { %"struct.obj_map<func_decl, quantifier *>::key_data" }

; Function Attrs: mustprogress nounwind uwtable
define linkonce_odr hidden void @_ZN7obj_mapI9func_declP10quantifierE8key_dataC2Ev(ptr noundef nonnull align 8 dereferenceable(16) %0) unnamed_addr #5 comdat align 2 {
  %2 = alloca ptr, align 8
  store ptr %0, ptr %2, align 8, !tbaa !228
  %3 = load ptr, ptr %2, align 8
  %4 = getelementptr inbounds nuw %"struct.obj_map<func_decl, quantifier *>::key_data", ptr %3, i32 0, i32 0
  store ptr null, ptr %4, align 8, !tbaa !230
  %5 = getelementptr inbounds nuw %"struct.obj_map<func_decl, quantifier *>::key_data", ptr %3, i32 0, i32 1
  store ptr null, ptr %5, align 8, !tbaa !123
  ret void
}

; Function Attrs: mustprogress nounwind uwtable
define linkonce_odr hidden void @_ZNSt12_Destroy_auxILb1EE9__destroyIPN7obj_mapI9func_declP10quantifierE13obj_map_entryEEEvT_S9_(ptr noundef %0, ptr noundef %1) #5 comdat align 2 {
  %3 = alloca ptr, align 8
  %4 = alloca ptr, align 8
  store ptr %0, ptr %3, align 8, !tbaa !122
  store ptr %1, ptr %4, align 8, !tbaa !122
  ret void
}

; Function Attrs: inlinehint mustprogress nounwind uwtable
define linkonce_odr hidden void @_ZN7obj_mapI9func_declP10quantifierE13obj_map_entryC2Ev(ptr noundef nonnull align 8 dereferenceable(16) %0) unnamed_addr #6 comdat align 2 {
  %2 = alloca ptr, align 8
  store ptr %0, ptr %2, align 8, !tbaa !122
  %3 = load ptr, ptr %2, align 8
  %4 = getelementptr inbounds nuw %"class.obj_map<func_decl, quantifier *>::obj_map_entry", ptr %3, i32 0, i32 0
  call void @_ZN7obj_mapI9func_declP10quantifierE8key_dataC2Ev(ptr noundef nonnull align 8 dereferenceable(16) %4) #3
  ret void
}

; Function Attrs: noinline noreturn nounwind uwtable
define linkonce_odr hidden void @__clang_call_terminate(ptr noundef %0) #7 comdat {
  %2 = call ptr @__cxa_begin_catch(ptr %0) #3
  call void @_ZSt9terminatev() #18
  unreachable
}

; Function Attrs: inlinehint mustprogress uwtable
define linkonce_odr hidden void @_ZSt8_DestroyIPN7obj_mapI9func_declP10quantifierE13obj_map_entryEEvT_S7_(ptr noundef %0, ptr noundef %1) #9 comdat {
  %3 = alloca ptr, align 8
  %4 = alloca ptr, align 8
  store ptr %0, ptr %3, align 8, !tbaa !122
  store ptr %1, ptr %4, align 8, !tbaa !122
  %5 = load ptr, ptr %3, align 8, !tbaa !122
  %6 = load ptr, ptr %4, align 8, !tbaa !122
  call void @_ZNSt12_Destroy_auxILb1EE9__destroyIPN7obj_mapI9func_declP10quantifierE13obj_map_entryEEEvT_S9_(ptr noundef %5, ptr noundef %6)
  ret void
}

; Function Attrs: inlinehint mustprogress nounwind uwtable
define linkonce_odr hidden void @_ZSt18_Construct_novalueIN7obj_mapI9func_declP10quantifierE13obj_map_entryEEvPT_(ptr noundef %0) #6 comdat {
  %2 = alloca ptr, align 8
  store ptr %0, ptr %2, align 8, !tbaa !122
  %3 = load ptr, ptr %2, align 8, !tbaa !122
  call void @_ZN7obj_mapI9func_declP10quantifierE13obj_map_entryC2Ev(ptr noundef nonnull align 8 dereferenceable(16) %3) #3
  ret void
}

; Function Attrs: mustprogress uwtable
define linkonce_odr hidden noundef ptr @_ZNSt35__uninitialized_default_novalue_n_1ILb0EE26__uninit_default_novalue_nIPN7obj_mapI9func_declP10quantifierE13obj_map_entryEjEET_S9_T0_(ptr noundef %0, i32 noundef %1) #4 comdat align 2 personality ptr @__gxx_personality_v0 {
  %3 = alloca ptr, align 8
  %4 = alloca i32, align 4
  %5 = alloca ptr, align 8
  %6 = alloca ptr, align 8
  %7 = alloca i32, align 4
  store ptr %0, ptr %3, align 8, !tbaa !122
  store i32 %1, ptr %4, align 4, !tbaa !134
  call void @llvm.lifetime.start.p0(i64 8, ptr %5) #3
  %8 = load ptr, ptr %3, align 8, !tbaa !122
  store ptr %8, ptr %5, align 8, !tbaa !122
  br label %9

9:                                                ; preds = %15, %2
  %10 = load i32, ptr %4, align 4, !tbaa !134
  %11 = icmp ugt i32 %10, 0
  br i1 %11, label %12, label %30

12:                                               ; preds = %9
  %13 = load ptr, ptr %5, align 8, !tbaa !122
  invoke void @_ZSt18_Construct_novalueIN7obj_mapI9func_declP10quantifierE13obj_map_entryEEvPT_(ptr noundef %13)
          to label %14 unwind label %20

14:                                               ; preds = %12
  br label %15

15:                                               ; preds = %14
  %16 = load i32, ptr %4, align 4, !tbaa !134
  %17 = add i32 %16, -1
  store i32 %17, ptr %4, align 4, !tbaa !134
  %18 = load ptr, ptr %5, align 8, !tbaa !122
  %19 = getelementptr inbounds nuw %"class.obj_map<func_decl, quantifier *>::obj_map_entry", ptr %18, i32 1
  store ptr %19, ptr %5, align 8, !tbaa !122
  br label %9, !llvm.loop !227

20:                                               ; preds = %12
  %21 = landingpad { ptr, i32 }
          catch ptr null
  %22 = extractvalue { ptr, i32 } %21, 0
  store ptr %22, ptr %6, align 8
  %23 = extractvalue { ptr, i32 } %21, 1
  store i32 %23, ptr %7, align 4
  br label %24

24:                                               ; preds = %20
  %25 = load ptr, ptr %6, align 8
  %26 = call ptr @__cxa_begin_catch(ptr %25) #3
  %27 = load ptr, ptr %3, align 8, !tbaa !122
  %28 = load ptr, ptr %5, align 8, !tbaa !122
  invoke void @_ZSt8_DestroyIPN7obj_mapI9func_declP10quantifierE13obj_map_entryEEvT_S7_(ptr noundef %27, ptr noundef %28)
          to label %29 unwind label %32

29:                                               ; preds = %24
  invoke void @__cxa_rethrow() #19
          to label %46 unwind label %32

30:                                               ; preds = %9
  %31 = load ptr, ptr %5, align 8, !tbaa !122
  call void @llvm.lifetime.end.p0(i64 8, ptr %5) #3
  ret ptr %31

32:                                               ; preds = %29, %24
  %33 = landingpad { ptr, i32 }
          cleanup
  %34 = extractvalue { ptr, i32 } %33, 0
  store ptr %34, ptr %6, align 8
  %35 = extractvalue { ptr, i32 } %33, 1
  store i32 %35, ptr %7, align 4
  invoke void @__cxa_end_catch()
          to label %36 unwind label %43

36:                                               ; preds = %32
  call void @llvm.lifetime.end.p0(i64 8, ptr %5) #3
  br label %38

37:                                               ; No predecessors!
  unreachable

38:                                               ; preds = %36
  %39 = load ptr, ptr %6, align 8
  %40 = load i32, ptr %7, align 4
  %41 = insertvalue { ptr, i32 } poison, ptr %39, 0
  %42 = insertvalue { ptr, i32 } %41, i32 %40, 1
  resume { ptr, i32 } %42

43:                                               ; preds = %32
  %44 = landingpad { ptr, i32 }
          catch ptr null
  %45 = extractvalue { ptr, i32 } %44, 0
  call void @__clang_call_terminate(ptr %45) #18
  unreachable

46:                                               ; preds = %29
  unreachable
}

; Function Attrs: inlinehint mustprogress uwtable
define linkonce_odr hidden noundef ptr @_ZSt33__uninitialized_default_novalue_nIPN7obj_mapI9func_declP10quantifierE13obj_map_entryEjET_S7_T0_(ptr noundef %0, i32 noundef %1) #9 comdat {
  %3 = alloca ptr, align 8
  %4 = alloca i32, align 4
  store ptr %0, ptr %3, align 8, !tbaa !122
  store i32 %1, ptr %4, align 4, !tbaa !134
  %5 = load ptr, ptr %3, align 8, !tbaa !122
  %6 = load i32, ptr %4, align 4, !tbaa !134
  %7 = call noundef ptr @_ZNSt35__uninitialized_default_novalue_n_1ILb0EE26__uninit_default_novalue_nIPN7obj_mapI9func_declP10quantifierE13obj_map_entryEjEET_S9_T0_(ptr noundef %5, i32 noundef %6)
  ret ptr %7
}

; Function Attrs: inlinehint mustprogress uwtable
define linkonce_odr hidden noundef ptr @_ZSt33uninitialized_default_construct_nIPN7obj_mapI9func_declP10quantifierE13obj_map_entryEjET_S7_T0_(ptr noundef %0, i32 noundef %1) #9 comdat {
  %3 = alloca ptr, align 8
  %4 = alloca i32, align 4
  store ptr %0, ptr %3, align 8, !tbaa !122
  store i32 %1, ptr %4, align 4, !tbaa !134
  %5 = load ptr, ptr %3, align 8, !tbaa !122
  %6 = load i32, ptr %4, align 4, !tbaa !134
  %7 = call noundef ptr @_ZSt33__uninitialized_default_novalue_nIPN7obj_mapI9func_declP10quantifierE13obj_map_entryEjET_S7_T0_(ptr noundef %5, i32 noundef %6)
  ret ptr %7
}

; Function Attrs: mustprogress uwtable
define linkonce_odr hidden noalias noundef ptr @_Z10alloc_vectIN7obj_mapI9func_declP10quantifierE13obj_map_entryEEPT_j(i32 noundef %0) #4 comdat {
  %2 = alloca i32, align 4
  %3 = alloca ptr, align 8
  store i32 %0, ptr %2, align 4, !tbaa !134
  call void @llvm.lifetime.start.p0(i64 8, ptr %3) #3
  %4 = load i32, ptr %2, align 4, !tbaa !134
  %5 = zext i32 %4 to i64
  %6 = mul i64 16, %5
  %7 = call noalias noundef ptr @_ZN6memory8allocateEm(i64 noundef %6)
  store ptr %7, ptr %3, align 8, !tbaa !122
  %8 = load ptr, ptr %3, align 8, !tbaa !122
  %9 = load i32, ptr %2, align 4, !tbaa !134
  %10 = call noundef ptr @_ZSt33uninitialized_default_construct_nIPN7obj_mapI9func_declP10quantifierE13obj_map_entryEjET_S7_T0_(ptr noundef %8, i32 noundef %9)
  %11 = load ptr, ptr %3, align 8, !tbaa !122
  call void @llvm.lifetime.end.p0(i64 8, ptr %3) #3
  ret ptr %11
}

; Function Attrs: mustprogress uwtable
define linkonce_odr hidden noundef ptr @_ZN14core_hashtableIN7obj_mapI9func_declP10quantifierE13obj_map_entryE8obj_hashINS4_8key_dataEE10default_eqIS7_EE11alloc_tableEj(ptr noundef nonnull align 8 dereferenceable(20) %0, i32 noundef %1) #4 comdat align 2 {
  %3 = alloca ptr, align 8
  %4 = alloca i32, align 4
  %5 = alloca ptr, align 8
  store ptr %0, ptr %3, align 8, !tbaa !135
  store i32 %1, ptr %4, align 4, !tbaa !134
  call void @llvm.lifetime.start.p0(i64 8, ptr %5) #3
  %6 = load i32, ptr %4, align 4, !tbaa !134
  %7 = call noalias noundef ptr @_Z10alloc_vectIN7obj_mapI9func_declP10quantifierE13obj_map_entryEEPT_j(i32 noundef %6)
  store ptr %7, ptr %5, align 8, !tbaa !122
  %8 = load ptr, ptr %5, align 8, !tbaa !122
  call void @llvm.lifetime.end.p0(i64 8, ptr %5) #3
  ret ptr %8
}

; Function Attrs: mustprogress uwtable
define linkonce_odr hidden void @_ZN14core_hashtableIN7obj_mapI9func_declP10quantifierE13obj_map_entryE8obj_hashINS4_8key_dataEE10default_eqIS7_EEC2EjRKS8_RKSA_(ptr noundef nonnull align 8 dereferenceable(20) %0, i32 noundef %1, ptr noundef nonnull align 1 dereferenceable(1) %2, ptr noundef nonnull align 1 dereferenceable(1) %3) unnamed_addr #4 comdat align 2 {
  %5 = alloca ptr, align 8
  %6 = alloca i32, align 4
  %7 = alloca ptr, align 8
  %8 = alloca ptr, align 8
  store ptr %0, ptr %5, align 8, !tbaa !135
  store i32 %1, ptr %6, align 4, !tbaa !134
  store ptr %2, ptr %7, align 8, !tbaa !221
  store ptr %3, ptr %8, align 8, !tbaa !223
  %9 = load ptr, ptr %5, align 8
  %10 = load i32, ptr %6, align 4, !tbaa !134
  %11 = call noundef ptr @_ZN14core_hashtableIN7obj_mapI9func_declP10quantifierE13obj_map_entryE8obj_hashINS4_8key_dataEE10default_eqIS7_EE11alloc_tableEj(ptr noundef nonnull align 8 dereferenceable(20) %9, i32 noundef %10)
  %12 = getelementptr inbounds nuw %class.core_hashtable, ptr %9, i32 0, i32 0
  store ptr %11, ptr %12, align 8, !tbaa !137
  %13 = load i32, ptr %6, align 4, !tbaa !134
  %14 = getelementptr inbounds nuw %class.core_hashtable, ptr %9, i32 0, i32 1
  store i32 %13, ptr %14, align 8, !tbaa !138
  %15 = getelementptr inbounds nuw %class.core_hashtable, ptr %9, i32 0, i32 2
  store i32 0, ptr %15, align 4, !tbaa !225
  %16 = getelementptr inbounds nuw %class.core_hashtable, ptr %9, i32 0, i32 3
  store i32 0, ptr %16, align 8, !tbaa !226
  ret void
}

; Function Attrs: mustprogress nounwind uwtable
define linkonce_odr hidden void @_ZN10scoped_ptrI7obj_mapI9func_declPN18dependency_managerIN11ast_manager22expr_dependency_configEE10dependencyEEEC2EPS8_(ptr noundef nonnull align 8 dereferenceable(8) %0, ptr noundef %1) unnamed_addr #5 comdat align 2 {
  %3 = alloca ptr, align 8
  %4 = alloca ptr, align 8
  store ptr %0, ptr %3, align 8, !tbaa !16
  store ptr %1, ptr %4, align 8, !tbaa !14
  %5 = load ptr, ptr %3, align 8
  %6 = getelementptr inbounds nuw %class.scoped_ptr.0, ptr %5, i32 0, i32 0
  %7 = load ptr, ptr %4, align 8, !tbaa !14
  store ptr %7, ptr %6, align 8, !tbaa !18
  ret void
}

; Function Attrs: mustprogress nounwind uwtable
define linkonce_odr hidden void @_ZN10scoped_ptrI7obj_mapI9func_declP3appEEC2EPS4_(ptr noundef nonnull align 8 dereferenceable(8) %0, ptr noundef %1) unnamed_addr #5 comdat align 2 {
  %3 = alloca ptr, align 8
  %4 = alloca ptr, align 8
  store ptr %0, ptr %3, align 8, !tbaa !10
  store ptr %1, ptr %4, align 8, !tbaa !8
  %5 = load ptr, ptr %3, align 8
  %6 = getelementptr inbounds nuw %class.scoped_ptr, ptr %5, i32 0, i32 0
  %7 = load ptr, ptr %4, align 8, !tbaa !8
  store ptr %7, ptr %6, align 8, !tbaa !12
  ret void
}

; Function Attrs: mustprogress uwtable
define linkonce_odr hidden void @_ZN7obj_mapI9func_declP10quantifierEC2Ev(ptr noundef nonnull align 8 dereferenceable(24) %0) unnamed_addr #4 comdat align 2 {
  %2 = alloca ptr, align 8
  %3 = alloca %struct.obj_hash, align 1
  %4 = alloca %struct.default_eq, align 1
  store ptr %0, ptr %2, align 8, !tbaa !22
  %5 = load ptr, ptr %2, align 8
  %6 = getelementptr inbounds nuw %class.obj_map, ptr %5, i32 0, i32 0
  call void @llvm.lifetime.start.p0(i64 1, ptr %3) #3
  call void @llvm.lifetime.start.p0(i64 1, ptr %4) #3
  call void @_ZN14core_hashtableIN7obj_mapI9func_declP10quantifierE13obj_map_entryE8obj_hashINS4_8key_dataEE10default_eqIS7_EEC2EjRKS8_RKSA_(ptr noundef nonnull align 8 dereferenceable(20) %6, i32 noundef 8, ptr noundef nonnull align 1 dereferenceable(1) %3, ptr noundef nonnull align 1 dereferenceable(1) %4)
  call void @llvm.lifetime.end.p0(i64 1, ptr %4) #3
  call void @llvm.lifetime.end.p0(i64 1, ptr %3) #3
  ret void
}

; Function Attrs: mustprogress uwtable
define hidden void @_ZN18macro_substitutionC2ER11ast_managerbb(ptr noundef nonnull align 8 dereferenceable(49) %0, ptr noundef nonnull align 8 dereferenceable(976) %1, i1 noundef zeroext %2, i1 noundef zeroext %3) unnamed_addr #4 align 2 personality ptr @__gxx_personality_v0 {
  %5 = alloca ptr, align 8
  %6 = alloca ptr, align 8
  %7 = alloca i8, align 1
  %8 = alloca i8, align 1
  %9 = alloca ptr, align 8
  %10 = alloca i32, align 4
  store ptr %0, ptr %5, align 8, !tbaa !3
  store ptr %1, ptr %6, align 8, !tbaa !20
  %11 = zext i1 %2 to i8
  store i8 %11, ptr %7, align 1, !tbaa !92
  %12 = zext i1 %3 to i8
  store i8 %12, ptr %8, align 1, !tbaa !92
  %13 = load ptr, ptr %5, align 8
  %14 = getelementptr inbounds nuw %class.macro_substitution, ptr %13, i32 0, i32 0
  %15 = load ptr, ptr %6, align 8, !tbaa !20
  store ptr %15, ptr %14, align 8, !tbaa !20
  %16 = getelementptr inbounds nuw %class.macro_substitution, ptr %13, i32 0, i32 1
  call void @_ZN7obj_mapI9func_declP10quantifierEC2Ev(ptr noundef nonnull align 8 dereferenceable(24) %16)
  %17 = getelementptr inbounds nuw %class.macro_substitution, ptr %13, i32 0, i32 2
  invoke void @_ZN10scoped_ptrI7obj_mapI9func_declP3appEEC2EPS4_(ptr noundef nonnull align 8 dereferenceable(8) %17, ptr noundef null)
          to label %18 unwind label %41

18:                                               ; preds = %4
  %19 = getelementptr inbounds nuw %class.macro_substitution, ptr %13, i32 0, i32 3
  invoke void @_ZN10scoped_ptrI7obj_mapI9func_declPN18dependency_managerIN11ast_manager22expr_dependency_configEE10dependencyEEEC2EPS8_(ptr noundef nonnull align 8 dereferenceable(8) %19, ptr noundef null)
          to label %20 unwind label %45

20:                                               ; preds = %18
  %21 = getelementptr inbounds nuw %class.macro_substitution, ptr %13, i32 0, i32 4
  %22 = load i8, ptr %7, align 1, !tbaa !92, !range !93, !noundef !94
  %23 = trunc i8 %22 to i1
  %24 = zext i1 %23 to i32
  %25 = trunc i32 %24 to i8
  %26 = load i8, ptr %21, align 8
  %27 = and i8 %25, 1
  %28 = and i8 %26, -2
  %29 = or i8 %28, %27
  store i8 %29, ptr %21, align 8
  %30 = getelementptr inbounds nuw %class.macro_substitution, ptr %13, i32 0, i32 4
  %31 = load i8, ptr %8, align 1, !tbaa !92, !range !93, !noundef !94
  %32 = trunc i8 %31 to i1
  %33 = zext i1 %32 to i32
  %34 = trunc i32 %33 to i8
  %35 = load i8, ptr %30, align 8
  %36 = and i8 %34, 1
  %37 = shl i8 %36, 1
  %38 = and i8 %35, -3
  %39 = or i8 %38, %37
  store i8 %39, ptr %30, align 8
  invoke void @_ZN18macro_substitution4initEv(ptr noundef nonnull align 8 dereferenceable(49) %13)
          to label %40 unwind label %49

40:                                               ; preds = %20
  ret void

41:                                               ; preds = %4
  %42 = landingpad { ptr, i32 }
          cleanup
  %43 = extractvalue { ptr, i32 } %42, 0
  store ptr %43, ptr %9, align 8
  %44 = extractvalue { ptr, i32 } %42, 1
  store i32 %44, ptr %10, align 4
  br label %54

45:                                               ; preds = %18
  %46 = landingpad { ptr, i32 }
          cleanup
  %47 = extractvalue { ptr, i32 } %46, 0
  store ptr %47, ptr %9, align 8
  %48 = extractvalue { ptr, i32 } %46, 1
  store i32 %48, ptr %10, align 4
  br label %53

49:                                               ; preds = %20
  %50 = landingpad { ptr, i32 }
          cleanup
  %51 = extractvalue { ptr, i32 } %50, 0
  store ptr %51, ptr %9, align 8
  %52 = extractvalue { ptr, i32 } %50, 1
  store i32 %52, ptr %10, align 4
  call void @_ZN10scoped_ptrI7obj_mapI9func_declPN18dependency_managerIN11ast_manager22expr_dependency_configEE10dependencyEEED2Ev(ptr noundef nonnull align 8 dereferenceable(8) %19) #3
  br label %53

53:                                               ; preds = %49, %45
  call void @_ZN10scoped_ptrI7obj_mapI9func_declP3appEED2Ev(ptr noundef nonnull align 8 dereferenceable(8) %17) #3
  br label %54

54:                                               ; preds = %53, %41
  call void @_ZN7obj_mapI9func_declP10quantifierED2Ev(ptr noundef nonnull align 8 dereferenceable(24) %16) #3
  br label %55

55:                                               ; preds = %54
  %56 = load ptr, ptr %9, align 8
  %57 = load i32, ptr %10, align 4
  %58 = insertvalue { ptr, i32 } poison, ptr %56, 0
  %59 = insertvalue { ptr, i32 } %58, i32 %57, 1
  resume { ptr, i32 } %59
}